; Function Attrs: mustprogress nofree norecurse nosync nounwind willreturn memory(readwrite, inaccessiblemem: none) uwtable
define dso_local void @bitmap_unset(ptr noundef readonly captures(none) %0, i64 noundef %1) local_unnamed_addr #3 {
  %3 = lshr i64 %1, 6
  %4 = getelementptr inbounds nuw i8, ptr %0, i64 8
  %5 = load i64, ptr %4, align 8, !tbaa !11
  %6 = icmp ult i64 %3, %5
  br i1 %6, label %7, label %15

7:                                                ; preds = %2
  %8 = and i64 %1, 63
  %9 = shl nuw i64 1, %8
  %10 = xor i64 %9, -1
  %11 = load ptr, ptr %0, align 8, !tbaa !4
  %12 = getelementptr inbounds nuw i64, ptr %11, i64 %3
  %13 = load i64, ptr %12, align 8, !tbaa !12
  %14 = and i64 %13, %10
  store i64 %14, ptr %12, align 8, !tbaa !12
  br label %15

15:                                               ; preds = %7, %2
  ret void
}